target datalayout = "e-m:e-p270:32:32-p271:32:32-p272:64:64-i64:64-i128:128-f80:128-n8:16:32:64-S128"
target triple = "x86_64-pc-linux-gnu"

; Function Attrs: nounwind uwtable
define internal float @avifToGammaIEC61966(float noundef %0) #0 {
  %2 = alloca float, align 4
  %3 = alloca float, align 4
  store float %0, ptr %3, align 4
  %4 = load float, ptr %3, align 4
  %5 = fcmp olt float %4, 0xBF927CBD60000000
  br i1 %5, label %6, label %11

6:                                                ; preds = %1
  %7 = load float, ptr %3, align 4
  %8 = fneg float %7
  %9 = call float @powf(float noundef %8, float noundef 0x3FDCCCCCC0000000) #4
  %10 = call float @llvm.fmuladd.f32(float 0xBFF196B840000000, float %9, float 0x3FB96B8440000000)
  store float %10, ptr %2, align 4
  br label %21

11:                                               ; preds = %1
  %12 = load float, ptr %3, align 4
  %13 = fcmp olt float %12, 0x3F927CBD60000000
  br i1 %13, label %14, label %17

14:                                               ; preds = %11
  %15 = load float, ptr %3, align 4
  %16 = fmul float %15, 4.500000e+00
  store float %16, ptr %2, align 4
  br label %21

17:                                               ; preds = %11
  %18 = load float, ptr %3, align 4
  %19 = call float @powf(float noundef %18, float noundef 0x3FDCCCCCC0000000) #4
  %20 = call float @llvm.fmuladd.f32(float 0x3FF196B840000000, float %19, float 0xBFB96B8440000000)
  store float %20, ptr %2, align 4
  br label %21

21:                                               ; preds = %17, %14, %6
  %22 = load float, ptr %2, align 4
  ret float %22
}