; Function Attrs: mustprogress nofree nounwind willreturn memory(write) uwtable
define internal float @avifToGammaIEC61966(float noundef %0) #5 {
  %2 = fcmp olt float %0, 0xBF927CBD60000000
  br i1 %2, label %3, label %7

3:                                                ; preds = %1
  %4 = fneg float %0
  %5 = tail call float @powf(float noundef %4, float noundef 0x3FDCCCCCC0000000) #9
  %6 = tail call float @llvm.fmuladd.f32(float %5, float 0xBFF196B840000000, float 0x3FB96B8440000000)
  br label %14

7:                                                ; preds = %1
  %8 = fcmp olt float %0, 0x3F927CBD60000000
  br i1 %8, label %9, label %11

9:                                                ; preds = %7
  %10 = fmul float %0, 4.500000e+00
  br label %14

11:                                               ; preds = %7
  %12 = tail call float @powf(float noundef %0, float noundef 0x3FDCCCCCC0000000) #9
  %13 = tail call float @llvm.fmuladd.f32(float %12, float 0x3FF196B840000000, float 0xBFB96B8440000000)
  br label %14

14:                                               ; preds = %11, %9, %3
  %.0 = phi float [ %6, %3 ], [ %10, %9 ], [ %13, %11 ]
  ret float %.0
}